target datalayout = "e-m:e-p270:32:32-p271:32:32-p272:64:64-i64:64-i128:128-f80:128-n8:16:32:64-S128"
target triple = "x86_64-pc-linux-gnu"

%struct.dlist_head = type { %struct.dlist_node }
%struct.dlist_node = type { ptr, ptr }
%struct.dsm_segment = type { %struct.dlist_node, ptr, i32, i32, ptr, ptr, i64, %struct.slist_head }
%struct.slist_head = type { %struct.slist_node }
%struct.slist_node = type { ptr }
%struct.dlist_iter = type { ptr, ptr }

@dsm_segment_list = internal global %struct.dlist_head { %struct.dlist_node { ptr @dsm_segment_list, ptr @dsm_segment_list } }, align 8

; Function Attrs: inlinehint nounwind uwtable
define internal ptr @slist_pop_head_node(ptr noundef %0) #4 {
  %2 = alloca ptr, align 8
  %3 = alloca ptr, align 8
  store ptr %0, ptr %2, align 8
  call void @llvm.lifetime.start.p0(i64 8, ptr %3) #8
  %4 = load ptr, ptr %2, align 8
  %5 = getelementptr inbounds nuw %struct.slist_head, ptr %4, i32 0, i32 0
  %6 = getelementptr inbounds nuw %struct.slist_node, ptr %5, i32 0, i32 0
  %7 = load ptr, ptr %6, align 8
  store ptr %7, ptr %3, align 8
  %8 = load ptr, ptr %3, align 8
  %9 = getelementptr inbounds nuw %struct.slist_node, ptr %8, i32 0, i32 0
  %10 = load ptr, ptr %9, align 8
  %11 = load ptr, ptr %2, align 8
  %12 = getelementptr inbounds nuw %struct.slist_head, ptr %11, i32 0, i32 0
  %13 = getelementptr inbounds nuw %struct.slist_node, ptr %12, i32 0, i32 0
  store ptr %10, ptr %13, align 8
  %14 = load ptr, ptr %3, align 8
  call void @llvm.lifetime.end.p0(i64 8, ptr %3) #8
  ret ptr %14
}

; Function Attrs: inlinehint nounwind uwtable
define internal zeroext i1 @slist_is_empty(ptr noundef %0) #4 {
  %2 = alloca ptr, align 8
  store ptr %0, ptr %2, align 8
  %3 = load ptr, ptr %2, align 8
  %4 = getelementptr inbounds nuw %struct.slist_head, ptr %3, i32 0, i32 0
  %5 = getelementptr inbounds nuw %struct.slist_node, ptr %4, i32 0, i32 0
  %6 = load ptr, ptr %5, align 8
  %7 = icmp eq ptr %6, null
  ret i1 %7
}

; Function Attrs: nounwind uwtable
define dso_local void @reset_on_dsm_detach() #0 {
  %1 = alloca %struct.dlist_iter, align 8
  %2 = alloca i32, align 4
  %3 = alloca i32, align 4
  %4 = alloca ptr, align 8
  %5 = alloca i32, align 4
  %6 = alloca i32, align 4
  %7 = alloca ptr, align 8
  %8 = alloca ptr, align 8
  %9 = alloca i32, align 4
  %10 = alloca i32, align 4
  call void @llvm.lifetime.start.p0(i64 16, ptr %1) #8
  br label %11

11:                                               ; preds = %0
  br label %12

12:                                               ; preds = %11
  br label %13

13:                                               ; preds = %12
  store i32 1, ptr %2, align 4
  br label %14

14:                                               ; preds = %13
  br label %15

15:                                               ; preds = %14
  br label %16

16:                                               ; preds = %15
  store i32 1, ptr %3, align 4
  %17 = getelementptr inbounds nuw %struct.dlist_iter, ptr %1, i32 0, i32 1
  store ptr @dsm_segment_list, ptr %17, align 8
  %18 = getelementptr inbounds nuw %struct.dlist_iter, ptr %1, i32 0, i32 1
  %19 = load ptr, ptr %18, align 8
  %20 = getelementptr inbounds nuw %struct.dlist_node, ptr %19, i32 0, i32 1
  %21 = load ptr, ptr %20, align 8
  %22 = icmp ne ptr %21, null
  br i1 %22, label %23, label %28

23:                                               ; preds = %16
  %24 = getelementptr inbounds nuw %struct.dlist_iter, ptr %1, i32 0, i32 1
  %25 = load ptr, ptr %24, align 8
  %26 = getelementptr inbounds nuw %struct.dlist_node, ptr %25, i32 0, i32 1
  %27 = load ptr, ptr %26, align 8
  br label %31

28:                                               ; preds = %16
  %29 = getelementptr inbounds nuw %struct.dlist_iter, ptr %1, i32 0, i32 1
  %30 = load ptr, ptr %29, align 8
  br label %31

31:                                               ; preds = %28, %23
  %32 = phi ptr [ %27, %23 ], [ %30, %28 ]
  %33 = getelementptr inbounds nuw %struct.dlist_iter, ptr %1, i32 0, i32 0
  store ptr %32, ptr %33, align 8
  br label %34

34:                                               ; preds = %71, %31
  %35 = getelementptr inbounds nuw %struct.dlist_iter, ptr %1, i32 0, i32 0
  %36 = load ptr, ptr %35, align 8
  %37 = getelementptr inbounds nuw %struct.dlist_iter, ptr %1, i32 0, i32 1
  %38 = load ptr, ptr %37, align 8
  %39 = icmp ne ptr %36, %38
  br i1 %39, label %40, label %77

40:                                               ; preds = %34
  call void @llvm.lifetime.start.p0(i64 8, ptr %4) #8
  br label %41

41:                                               ; preds = %40
  br label %42

42:                                               ; preds = %41
  br label %43

43:                                               ; preds = %42
  store i32 1, ptr %5, align 4
  br label %44

44:                                               ; preds = %43
  br label %45

45:                                               ; preds = %44
  br label %46

46:                                               ; preds = %45
  store i32 1, ptr %6, align 4
  %47 = getelementptr inbounds nuw %struct.dlist_iter, ptr %1, i32 0, i32 0
  %48 = load ptr, ptr %47, align 8
  %49 = getelementptr inbounds i8, ptr %48, i64 0
  store ptr %49, ptr %4, align 8
  br label %50

50:                                               ; preds = %64, %46
  %51 = load ptr, ptr %4, align 8
  %52 = getelementptr inbounds nuw %struct.dsm_segment, ptr %51, i32 0, i32 7
  %53 = call zeroext i1 @slist_is_empty(ptr noundef %52)
  %54 = xor i1 %53, true
  br i1 %54, label %55, label %68

55:                                               ; preds = %50
  call void @llvm.lifetime.start.p0(i64 8, ptr %7) #8
  call void @llvm.lifetime.start.p0(i64 8, ptr %8) #8
  %56 = load ptr, ptr %4, align 8
  %57 = getelementptr inbounds nuw %struct.dsm_segment, ptr %56, i32 0, i32 7
  %58 = call ptr @slist_pop_head_node(ptr noundef %57)
  store ptr %58, ptr %7, align 8
  br label %59

59:                                               ; preds = %55
  br label %60

60:                                               ; preds = %59
  br label %61

61:                                               ; preds = %60
  store i32 1, ptr %9, align 4
  br label %62

62:                                               ; preds = %61
  br label %63

63:                                               ; preds = %62
  br label %64

64:                                               ; preds = %63
  store i32 1, ptr %10, align 4
  %65 = load ptr, ptr %7, align 8
  %66 = getelementptr inbounds i8, ptr %65, i64 -16
  store ptr %66, ptr %8, align 8
  %67 = load ptr, ptr %8, align 8
  call void @pfree(ptr noundef %67)
  call void @llvm.lifetime.end.p0(i64 8, ptr %8) #8
  call void @llvm.lifetime.end.p0(i64 8, ptr %7) #8
  br label %50, !llvm.loop !20

68:                                               ; preds = %50
  %69 = load ptr, ptr %4, align 8
  %70 = getelementptr inbounds nuw %struct.dsm_segment, ptr %69, i32 0, i32 3
  store i32 -1, ptr %70, align 4
  call void @llvm.lifetime.end.p0(i64 8, ptr %4) #8
  br label %71

71:                                               ; preds = %68
  %72 = getelementptr inbounds nuw %struct.dlist_iter, ptr %1, i32 0, i32 0
  %73 = load ptr, ptr %72, align 8
  %74 = getelementptr inbounds nuw %struct.dlist_node, ptr %73, i32 0, i32 1
  %75 = load ptr, ptr %74, align 8
  %76 = getelementptr inbounds nuw %struct.dlist_iter, ptr %1, i32 0, i32 0
  store ptr %75, ptr %76, align 8
  br label %34, !llvm.loop !21

77:                                               ; preds = %34
  call void @llvm.lifetime.end.p0(i64 16, ptr %1) #8
  ret void
}