; Function Attrs: nounwind uwtable
define dso_local void @reset_on_dsm_detach() local_unnamed_addr #0 {
  %1 = load ptr, ptr getelementptr inbounds nuw (i8, ptr @dsm_segment_list, i64 8), align 8
  %.not = icmp eq ptr %1, null
  %.not101315 = icmp eq ptr %1, @dsm_segment_list
  %.not1013 = or i1 %.not, %.not101315
  br i1 %.not1013, label %select.unfold._crit_edge, label %.preheader

.preheader:                                       ; preds = %0, %select.unfold
  %.sroa.0.014 = phi ptr [ %9, %select.unfold ], [ %1, %0 ]
  %2 = getelementptr inbounds nuw i8, ptr %.sroa.0.014, i64 56
  %.val11 = load ptr, ptr %2, align 8
  %3 = icmp eq ptr %.val11, null
  br i1 %3, label %select.unfold, label %.lr.ph

.lr.ph:                                           ; preds = %.preheader, %.lr.ph
  %.val12 = phi ptr [ %.val, %.lr.ph ], [ %.val11, %.preheader ]
  %4 = load ptr, ptr %.val12, align 8
  store ptr %4, ptr %2, align 8
  %5 = getelementptr inbounds i8, ptr %.val12, i64 -16
  tail call void @pfree(ptr noundef nonnull %5) #12
  %.val = load ptr, ptr %2, align 8
  %6 = icmp eq ptr %.val, null
  br i1 %6, label %select.unfold, label %.lr.ph, !llvm.loop !19

select.unfold:                                    ; preds = %.lr.ph, %.preheader
  %7 = getelementptr inbounds nuw i8, ptr %.sroa.0.014, i64 28
  store i32 -1, ptr %7, align 4
  %8 = getelementptr inbounds nuw i8, ptr %.sroa.0.014, i64 8
  %9 = load ptr, ptr %8, align 8
  %.not10 = icmp eq ptr %9, @dsm_segment_list
  br i1 %.not10, label %select.unfold._crit_edge, label %.preheader, !llvm.loop !20

select.unfold._crit_edge:                         ; preds = %select.unfold, %0
  ret void
}